target datalayout = "e-m:e-p270:32:32-p271:32:32-p272:64:64-i64:64-i128:128-f80:128-n8:16:32:64-S128"
target triple = "x86_64-pc-linux-gnu"

%"class.icu_77::UnicodeString" = type { %"class.icu_77::Replaceable", %"union.icu_77::UnicodeString::StackBufferOrFields" }
%"class.icu_77::Replaceable" = type { %"class.icu_77::UObject" }
%"class.icu_77::UObject" = type { ptr }
%"union.icu_77::UnicodeString::StackBufferOrFields" = type { %struct.anon.0, [32 x i8] }
%struct.anon.0 = type { i16, i32, i32, ptr }
%struct.anon = type { i16, [27 x i16] }
%"struct.icu_77::number::impl::AffixTag" = type { i32, i32, i32, i32 }

; Function Attrs: inlinehint mustprogress nounwind uwtable
define linkonce_odr noundef ptr @_ZNK6icu_7713UnicodeString13getArrayStartEv(ptr noundef nonnull align 8 dereferenceable(64) %0) #7 comdat align 2 {
  %2 = alloca ptr, align 8
  store ptr %0, ptr %2, align 8, !tbaa !10
  %3 = load ptr, ptr %2, align 8
  %4 = getelementptr inbounds nuw %"class.icu_77::UnicodeString", ptr %3, i32 0, i32 1
  %5 = getelementptr inbounds nuw %struct.anon.0, ptr %4, i32 0, i32 0
  %6 = load i16, ptr %5, align 8, !tbaa !21
  %7 = sext i16 %6 to i32
  %8 = and i32 %7, 2
  %9 = icmp ne i32 %8, 0
  br i1 %9, label %10, label %14

10:                                               ; preds = %1
  %11 = getelementptr inbounds nuw %"class.icu_77::UnicodeString", ptr %3, i32 0, i32 1
  %12 = getelementptr inbounds nuw %struct.anon, ptr %11, i32 0, i32 1
  %13 = getelementptr inbounds [27 x i16], ptr %12, i64 0, i64 0
  br label %18

14:                                               ; preds = %1
  %15 = getelementptr inbounds nuw %"class.icu_77::UnicodeString", ptr %3, i32 0, i32 1
  %16 = getelementptr inbounds nuw %struct.anon.0, ptr %15, i32 0, i32 3
  %17 = load ptr, ptr %16, align 8, !tbaa !21
  br label %18

18:                                               ; preds = %14, %10
  %19 = phi ptr [ %13, %10 ], [ %17, %14 ]
  ret ptr %19
}

; Function Attrs: inlinehint mustprogress uwtable
define linkonce_odr noundef zeroext i16 @_ZNK6icu_7713UnicodeString8doCharAtEi(ptr noundef nonnull align 8 dereferenceable(64) %0, i32 noundef %1) #4 comdat align 2 {
  %3 = alloca i16, align 2
  %4 = alloca ptr, align 8
  %5 = alloca i32, align 4
  store ptr %0, ptr %4, align 8, !tbaa !10
  store i32 %1, ptr %5, align 4, !tbaa !15
  %6 = load ptr, ptr %4, align 8
  %7 = load i32, ptr %5, align 4, !tbaa !15
  %8 = call noundef i32 @_ZNK6icu_7713UnicodeString6lengthEv(ptr noundef nonnull align 8 dereferenceable(64) %6)
  %9 = icmp ult i32 %7, %8
  br i1 %9, label %10, label %16

10:                                               ; preds = %2
  %11 = call noundef ptr @_ZNK6icu_7713UnicodeString13getArrayStartEv(ptr noundef nonnull align 8 dereferenceable(64) %6)
  %12 = load i32, ptr %5, align 4, !tbaa !15
  %13 = sext i32 %12 to i64
  %14 = getelementptr inbounds i16, ptr %11, i64 %13
  %15 = load i16, ptr %14, align 2, !tbaa !32
  store i16 %15, ptr %3, align 2
  br label %17

16:                                               ; preds = %2
  store i16 -1, ptr %3, align 2
  br label %17

17:                                               ; preds = %16, %10
  %18 = load i16, ptr %3, align 2
  ret i16 %18
}

; Function Attrs: inlinehint mustprogress uwtable
define linkonce_odr noundef zeroext i16 @_ZNK6icu_7713UnicodeString6charAtEi(ptr noundef nonnull align 8 dereferenceable(64) %0, i32 noundef %1) #4 comdat align 2 {
  %3 = alloca ptr, align 8
  %4 = alloca i32, align 4
  store ptr %0, ptr %3, align 8, !tbaa !10
  store i32 %1, ptr %4, align 4, !tbaa !15
  %5 = load ptr, ptr %3, align 8
  %6 = load i32, ptr %4, align 4, !tbaa !15
  %7 = call noundef zeroext i16 @_ZNK6icu_7713UnicodeString8doCharAtEi(ptr noundef nonnull align 8 dereferenceable(64) %5, i32 noundef %6)
  ret i16 %7
}

; Function Attrs: inlinehint mustprogress nounwind uwtable
define linkonce_odr noundef i32 @_ZNK6icu_7713UnicodeString14getShortLengthEv(ptr noundef nonnull align 8 dereferenceable(64) %0) #7 comdat align 2 {
  %2 = alloca ptr, align 8
  store ptr %0, ptr %2, align 8, !tbaa !10
  %3 = load ptr, ptr %2, align 8
  %4 = getelementptr inbounds nuw %"class.icu_77::UnicodeString", ptr %3, i32 0, i32 1
  %5 = getelementptr inbounds nuw %struct.anon.0, ptr %4, i32 0, i32 0
  %6 = load i16, ptr %5, align 8, !tbaa !21
  %7 = sext i16 %6 to i32
  %8 = ashr i32 %7, 5
  ret i32 %8
}

; Function Attrs: inlinehint mustprogress nounwind uwtable
define linkonce_odr noundef signext i8 @_ZNK6icu_7713UnicodeString14hasShortLengthEv(ptr noundef nonnull align 8 dereferenceable(64) %0) #7 comdat align 2 {
  %2 = alloca ptr, align 8
  store ptr %0, ptr %2, align 8, !tbaa !10
  %3 = load ptr, ptr %2, align 8
  %4 = getelementptr inbounds nuw %"class.icu_77::UnicodeString", ptr %3, i32 0, i32 1
  %5 = getelementptr inbounds nuw %struct.anon.0, ptr %4, i32 0, i32 0
  %6 = load i16, ptr %5, align 8, !tbaa !21
  %7 = sext i16 %6 to i32
  %8 = icmp sge i32 %7, 0
  %9 = zext i1 %8 to i8
  ret i8 %9
}

; Function Attrs: inlinehint mustprogress uwtable
define linkonce_odr noundef nonnull align 8 dereferenceable(64) ptr @_ZN6icu_7713UnicodeString7replaceEiiDs(ptr noundef nonnull align 8 dereferenceable(64) %0, i32 noundef %1, i32 noundef %2, i16 noundef zeroext %3) #4 comdat align 2 {
  %5 = alloca ptr, align 8
  %6 = alloca i32, align 4
  %7 = alloca i32, align 4
  %8 = alloca i16, align 2
  store ptr %0, ptr %5, align 8, !tbaa !10
  store i32 %1, ptr %6, align 4, !tbaa !15
  store i32 %2, ptr %7, align 4, !tbaa !15
  store i16 %3, ptr %8, align 2, !tbaa !32
  %9 = load ptr, ptr %5, align 8
  %10 = load i32, ptr %6, align 4, !tbaa !15
  %11 = load i32, ptr %7, align 4, !tbaa !15
  %12 = call noundef nonnull align 8 dereferenceable(64) ptr @_ZN6icu_7713UnicodeString9doReplaceEiiPKDsii(ptr noundef nonnull align 8 dereferenceable(64) %9, i32 noundef %10, i32 noundef %11, ptr noundef %8, i32 noundef 0, i32 noundef 1)
  ret ptr %12
}

; Function Attrs: inlinehint mustprogress nounwind uwtable
define internal noundef signext i8 @_ZL9U_FAILURE10UErrorCode(i32 noundef %0) #7 {
  %2 = alloca i32, align 4
  store i32 %0, ptr %2, align 4, !tbaa !19
  %3 = load i32, ptr %2, align 4, !tbaa !19
  %4 = icmp sgt i32 %3, 0
  %5 = zext i1 %4 to i8
  ret i8 %5
}

; Function Attrs: mustprogress uwtable
define noundef zeroext i1 @_ZN6icu_776number4impl10AffixUtils7hasNextERKNS1_8AffixTagERKNS_13UnicodeStringE(ptr noundef nonnull align 4 dereferenceable(16) %0, ptr noundef nonnull align 8 dereferenceable(64) %1) #2 align 2 {
  %3 = alloca i1, align 1
  %4 = alloca ptr, align 8
  %5 = alloca ptr, align 8
  store ptr %0, ptr %4, align 8, !tbaa !48
  store ptr %1, ptr %5, align 8, !tbaa !10
  %6 = load ptr, ptr %4, align 8, !tbaa !48
  %7 = getelementptr inbounds nuw %"struct.icu_77::number::impl::AffixTag", ptr %6, i32 0, i32 0
  %8 = load i32, ptr %7, align 4, !tbaa !50
  %9 = icmp slt i32 %8, 0
  br i1 %9, label %10, label %11

10:                                               ; preds = %2
  store i1 false, ptr %3, align 1
  br label %56

11:                                               ; preds = %2
  %12 = load ptr, ptr %4, align 8, !tbaa !48
  %13 = getelementptr inbounds nuw %"struct.icu_77::number::impl::AffixTag", ptr %12, i32 0, i32 0
  %14 = load i32, ptr %13, align 4, !tbaa !50
  %15 = icmp eq i32 %14, 0
  br i1 %15, label %16, label %20

16:                                               ; preds = %11
  %17 = load ptr, ptr %5, align 8, !tbaa !10
  %18 = call noundef i32 @_ZNK6icu_7713UnicodeString6lengthEv(ptr noundef nonnull align 8 dereferenceable(64) %17)
  %19 = icmp sgt i32 %18, 0
  store i1 %19, ptr %3, align 1
  br label %56

20:                                               ; preds = %11
  br label %21

21:                                               ; preds = %20
  %22 = load ptr, ptr %4, align 8, !tbaa !48
  %23 = getelementptr inbounds nuw %"struct.icu_77::number::impl::AffixTag", ptr %22, i32 0, i32 2
  %24 = load i32, ptr %23, align 4, !tbaa !51
  %25 = icmp eq i32 %24, 2
  br i1 %25, label %26, label %43

26:                                               ; preds = %21
  %27 = load ptr, ptr %4, align 8, !tbaa !48
  %28 = getelementptr inbounds nuw %"struct.icu_77::number::impl::AffixTag", ptr %27, i32 0, i32 0
  %29 = load i32, ptr %28, align 4, !tbaa !50
  %30 = load ptr, ptr %5, align 8, !tbaa !10
  %31 = call noundef i32 @_ZNK6icu_7713UnicodeString6lengthEv(ptr noundef nonnull align 8 dereferenceable(64) %30)
  %32 = sub nsw i32 %31, 1
  %33 = icmp eq i32 %29, %32
  br i1 %33, label %34, label %43

34:                                               ; preds = %26
  %35 = load ptr, ptr %5, align 8, !tbaa !10
  %36 = load ptr, ptr %4, align 8, !tbaa !48
  %37 = getelementptr inbounds nuw %"struct.icu_77::number::impl::AffixTag", ptr %36, i32 0, i32 0
  %38 = load i32, ptr %37, align 4, !tbaa !50
  %39 = call noundef zeroext i16 @_ZNK6icu_7713UnicodeString6charAtEi(ptr noundef nonnull align 8 dereferenceable(64) %35, i32 noundef %38)
  %40 = zext i16 %39 to i32
  %41 = icmp eq i32 %40, 39
  br i1 %41, label %42, label %43

42:                                               ; preds = %34
  store i1 false, ptr %3, align 1
  br label %56

43:                                               ; preds = %34, %26, %21
  %44 = load ptr, ptr %4, align 8, !tbaa !48
  %45 = getelementptr inbounds nuw %"struct.icu_77::number::impl::AffixTag", ptr %44, i32 0, i32 2
  %46 = load i32, ptr %45, align 4, !tbaa !51
  %47 = icmp ne i32 %46, 0
  br i1 %47, label %48, label %49

48:                                               ; preds = %43
  store i1 true, ptr %3, align 1
  br label %56

49:                                               ; preds = %43
  %50 = load ptr, ptr %4, align 8, !tbaa !48
  %51 = getelementptr inbounds nuw %"struct.icu_77::number::impl::AffixTag", ptr %50, i32 0, i32 0
  %52 = load i32, ptr %51, align 4, !tbaa !50
  %53 = load ptr, ptr %5, align 8, !tbaa !10
  %54 = call noundef i32 @_ZNK6icu_7713UnicodeString6lengthEv(ptr noundef nonnull align 8 dereferenceable(64) %53)
  %55 = icmp slt i32 %52, %54
  store i1 %55, ptr %3, align 1
  br label %56

56:                                               ; preds = %49, %48, %42, %16, %10
  %57 = load i1, ptr %3, align 1
  ret i1 %57
}

; Function Attrs: mustprogress nounwind uwtable
define linkonce_odr void @_ZN6icu_776number4impl8AffixTagC2Ev(ptr noundef nonnull align 4 dereferenceable(16) %0) unnamed_addr #0 comdat align 2 {
  %2 = alloca ptr, align 8
  store ptr %0, ptr %2, align 8, !tbaa !48
  %3 = load ptr, ptr %2, align 8
  %4 = getelementptr inbounds nuw %"struct.icu_77::number::impl::AffixTag", ptr %3, i32 0, i32 0
  store i32 0, ptr %4, align 4, !tbaa !50
  %5 = getelementptr inbounds nuw %"struct.icu_77::number::impl::AffixTag", ptr %3, i32 0, i32 2
  store i32 0, ptr %5, align 4, !tbaa !51
  ret void
}

; Function Attrs: inlinehint mustprogress uwtable
define linkonce_odr noundef i32 @_ZNK6icu_7713UnicodeString6lengthEv(ptr noundef nonnull align 8 dereferenceable(64) %0) #4 comdat align 2 {
  %2 = alloca ptr, align 8
  store ptr %0, ptr %2, align 8, !tbaa !10
  %3 = load ptr, ptr %2, align 8
  %4 = call noundef signext i8 @_ZNK6icu_7713UnicodeString14hasShortLengthEv(ptr noundef nonnull align 8 dereferenceable(64) %3)
  %5 = icmp ne i8 %4, 0
  br i1 %5, label %6, label %8

6:                                                ; preds = %1
  %7 = call noundef i32 @_ZNK6icu_7713UnicodeString14getShortLengthEv(ptr noundef nonnull align 8 dereferenceable(64) %3)
  br label %12

8:                                                ; preds = %1
  %9 = getelementptr inbounds nuw %"class.icu_77::UnicodeString", ptr %3, i32 0, i32 1
  %10 = getelementptr inbounds nuw %struct.anon.0, ptr %9, i32 0, i32 1
  %11 = load i32, ptr %10, align 4, !tbaa !21
  br label %12

12:                                               ; preds = %8, %6
  %13 = phi i32 [ %7, %6 ], [ %11, %8 ]
  ret i32 %13
}

; Function Attrs: mustprogress uwtable
define void @_ZN6icu_776number4impl10AffixUtils11replaceTypeERKNS_13UnicodeStringENS1_16AffixPatternTypeEDsR10UErrorCode(ptr dead_on_unwind noalias writable sret(%"class.icu_77::UnicodeString") align 8 %0, ptr noundef nonnull align 8 dereferenceable(64) %1, i32 noundef %2, i16 noundef zeroext %3, ptr noundef nonnull align 4 dereferenceable(4) %4) #2 align 2 personality ptr @__gxx_personality_v0 {
  %6 = alloca ptr, align 8
  %7 = alloca ptr, align 8
  %8 = alloca i32, align 4
  %9 = alloca i16, align 2
  %10 = alloca ptr, align 8
  %11 = alloca i1, align 1
  %12 = alloca ptr, align 8
  %13 = alloca i32, align 4
  %14 = alloca i32, align 4
  %15 = alloca %"struct.icu_77::number::impl::AffixTag", align 4
  %16 = alloca %"struct.icu_77::number::impl::AffixTag", align 4
  %17 = alloca %"struct.icu_77::number::impl::AffixTag", align 4
  store ptr %0, ptr %6, align 8
  store ptr %1, ptr %7, align 8, !tbaa !10
  store i32 %2, ptr %8, align 4, !tbaa !34
  store i16 %3, ptr %9, align 2, !tbaa !32
  store ptr %4, ptr %10, align 8, !tbaa !12
  store i1 false, ptr %11, align 1
  %18 = load ptr, ptr %7, align 8, !tbaa !10
  call void @_ZN6icu_7713UnicodeStringC1ERKS0_(ptr noundef nonnull align 8 dereferenceable(64) %0, ptr noundef nonnull align 8 dereferenceable(64) %18)
  %19 = load ptr, ptr %7, align 8, !tbaa !10
  %20 = invoke noundef i32 @_ZNK6icu_7713UnicodeString6lengthEv(ptr noundef nonnull align 8 dereferenceable(64) %19)
          to label %21 unwind label %24

21:                                               ; preds = %5
  %22 = icmp eq i32 %20, 0
  br i1 %22, label %23, label %28

23:                                               ; preds = %21
  store i1 true, ptr %11, align 1
  store i32 1, ptr %14, align 4
  br label %77

24:                                               ; preds = %5
  %25 = landingpad { ptr, i32 }
          cleanup
  %26 = extractvalue { ptr, i32 } %25, 0
  store ptr %26, ptr %12, align 8
  %27 = extractvalue { ptr, i32 } %25, 1
  store i32 %27, ptr %13, align 4
  br label %81

28:                                               ; preds = %21
  call void @llvm.lifetime.start.p0(i64 16, ptr %15) #11
  invoke void @_ZN6icu_776number4impl8AffixTagC2Ev(ptr noundef nonnull align 4 dereferenceable(16) %15)
          to label %29 unwind label %53

29:                                               ; preds = %28
  br label %30

30:                                               ; preds = %73, %29
  %31 = load ptr, ptr %7, align 8, !tbaa !10
  %32 = invoke noundef zeroext i1 @_ZN6icu_776number4impl10AffixUtils7hasNextERKNS1_8AffixTagERKNS_13UnicodeStringE(ptr noundef nonnull align 4 dereferenceable(16) %15, ptr noundef nonnull align 8 dereferenceable(64) %31)
          to label %33 unwind label %53

33:                                               ; preds = %30
  br i1 %32, label %34, label %74

34:                                               ; preds = %33
  call void @llvm.lifetime.start.p0(i64 16, ptr %16) #11
  call void @llvm.memcpy.p0.p0.i64(ptr align 4 %17, ptr align 4 %15, i64 16, i1 false), !tbaa.struct !42
  %35 = load ptr, ptr %7, align 8, !tbaa !10
  %36 = load ptr, ptr %10, align 8, !tbaa !12
  %37 = getelementptr inbounds nuw { i64, i64 }, ptr %17, i32 0, i32 0
  %38 = load i64, ptr %37, align 4
  %39 = getelementptr inbounds nuw { i64, i64 }, ptr %17, i32 0, i32 1
  %40 = load i64, ptr %39, align 4
  %41 = invoke { i64, i64 } @_ZN6icu_776number4impl10AffixUtils9nextTokenENS1_8AffixTagERKNS_13UnicodeStringER10UErrorCode(i64 %38, i64 %40, ptr noundef nonnull align 8 dereferenceable(64) %35, ptr noundef nonnull align 4 dereferenceable(4) %36)
          to label %42 unwind label %57

42:                                               ; preds = %34
  %43 = getelementptr inbounds nuw { i64, i64 }, ptr %16, i32 0, i32 0
  %44 = extractvalue { i64, i64 } %41, 0
  store i64 %44, ptr %43, align 4
  %45 = getelementptr inbounds nuw { i64, i64 }, ptr %16, i32 0, i32 1
  %46 = extractvalue { i64, i64 } %41, 1
  store i64 %46, ptr %45, align 4
  call void @llvm.memcpy.p0.p0.i64(ptr align 4 %15, ptr align 4 %16, i64 16, i1 false), !tbaa.struct !42
  call void @llvm.lifetime.end.p0(i64 16, ptr %16) #11
  %47 = load ptr, ptr %10, align 8, !tbaa !12
  %48 = load i32, ptr %47, align 4, !tbaa !19
  %49 = invoke noundef signext i8 @_ZL9U_FAILURE10UErrorCode(i32 noundef %48)
          to label %50 unwind label %53

50:                                               ; preds = %42
  %51 = icmp ne i8 %49, 0
  br i1 %51, label %52, label %61

52:                                               ; preds = %50
  store i1 true, ptr %11, align 1
  store i32 1, ptr %14, align 4
  br label %75

53:                                               ; preds = %66, %42, %30, %28
  %54 = landingpad { ptr, i32 }
          cleanup
  %55 = extractvalue { ptr, i32 } %54, 0
  store ptr %55, ptr %12, align 8
  %56 = extractvalue { ptr, i32 } %54, 1
  store i32 %56, ptr %13, align 4
  br label %76

57:                                               ; preds = %34
  %58 = landingpad { ptr, i32 }
          cleanup
  %59 = extractvalue { ptr, i32 } %58, 0
  store ptr %59, ptr %12, align 8
  %60 = extractvalue { ptr, i32 } %58, 1
  store i32 %60, ptr %13, align 4
  call void @llvm.lifetime.end.p0(i64 16, ptr %16) #11
  br label %76

61:                                               ; preds = %50
  %62 = getelementptr inbounds nuw %"struct.icu_77::number::impl::AffixTag", ptr %15, i32 0, i32 3
  %63 = load i32, ptr %62, align 4, !tbaa !43
  %64 = load i32, ptr %8, align 4, !tbaa !34
  %65 = icmp eq i32 %63, %64
  br i1 %65, label %66, label %73

66:                                               ; preds = %61
  %67 = getelementptr inbounds nuw %"struct.icu_77::number::impl::AffixTag", ptr %15, i32 0, i32 0
  %68 = load i32, ptr %67, align 4, !tbaa !50
  %69 = sub nsw i32 %68, 1
  %70 = load i16, ptr %9, align 2, !tbaa !32
  %71 = invoke noundef nonnull align 8 dereferenceable(64) ptr @_ZN6icu_7713UnicodeString7replaceEiiDs(ptr noundef nonnull align 8 dereferenceable(64) %0, i32 noundef %69, i32 noundef 1, i16 noundef zeroext %70)
          to label %72 unwind label %53

72:                                               ; preds = %66
  br label %73

73:                                               ; preds = %72, %61
  br label %30, !llvm.loop !56

74:                                               ; preds = %33
  store i1 true, ptr %11, align 1
  store i32 1, ptr %14, align 4
  br label %75

75:                                               ; preds = %74, %52
  call void @llvm.lifetime.end.p0(i64 16, ptr %15) #11
  br label %77

76:                                               ; preds = %57, %53
  call void @llvm.lifetime.end.p0(i64 16, ptr %15) #11
  br label %81

77:                                               ; preds = %75, %23
  %78 = load i1, ptr %11, align 1
  br i1 %78, label %80, label %79

79:                                               ; preds = %77
  call void @_ZN6icu_7713UnicodeStringD1Ev(ptr noundef nonnull align 8 dereferenceable(64) %0) #11
  br label %80

80:                                               ; preds = %79, %77
  ret void

81:                                               ; preds = %76, %24
  call void @_ZN6icu_7713UnicodeStringD1Ev(ptr noundef nonnull align 8 dereferenceable(64) %0) #11
  br label %82

82:                                               ; preds = %81
  %83 = load ptr, ptr %12, align 8
  %84 = load i32, ptr %13, align 4
  %85 = insertvalue { ptr, i32 } poison, ptr %83, 0
  %86 = insertvalue { ptr, i32 } %85, i32 %84, 1
  resume { ptr, i32 } %86
}