; Function Attrs: mustprogress uwtable
define void @_ZN6icu_776number4impl10AffixUtils11replaceTypeERKNS_13UnicodeStringENS1_16AffixPatternTypeEDsR10UErrorCode(ptr dead_on_unwind noalias nonnull writable sret(%"class.icu_77::UnicodeString") align 8 %0, ptr noundef nonnull align 8 dereferenceable(64) %1, i32 noundef %2, i16 noundef zeroext %3, ptr noundef nonnull align 4 captures(none) dereferenceable(4) %4) local_unnamed_addr #3 align 2 personality ptr @__gxx_personality_v0 {
  %6 = alloca i16, align 2
  tail call void @_ZN6icu_7713UnicodeStringC1ERKS0_(ptr noundef nonnull align 8 dereferenceable(64) %0, ptr noundef nonnull align 8 dereferenceable(64) %1)
  %7 = getelementptr inbounds nuw i8, ptr %1, i64 8
  %8 = load i16, ptr %7, align 8, !tbaa !3
  %9 = icmp slt i16 %8, 0
  %10 = ashr i16 %8, 5
  %11 = sext i16 %10 to i32
  %12 = getelementptr inbounds nuw i8, ptr %1, i64 12
  %13 = load i32, ptr %12, align 4
  %14 = select i1 %9, i32 %13, i32 %11
  %15 = icmp eq i32 %14, 0
  br i1 %15, label %_ZN6icu_776number4impl10AffixUtils7hasNextERKNS1_8AffixTagERKNS_13UnicodeStringE.exit.thread23, label %.preheader

.preheader:                                       ; preds = %5
  %16 = getelementptr inbounds nuw i8, ptr %1, i64 10
  %17 = getelementptr inbounds nuw i8, ptr %1, i64 24
  br label %18

18:                                               ; preds = %.preheader, %._crit_edge
  %.sroa.0.0.extract.trunc1927 = phi i32 [ 0, %.preheader ], [ %.sroa.0.0.extract.trunc, %._crit_edge ]
  %.sroa.0.026 = phi i64 [ 0, %.preheader ], [ %55, %._crit_edge ]
  %.sroa.8.025 = phi i64 [ 0, %.preheader ], [ %56, %._crit_edge ]
  %19 = icmp eq i32 %.sroa.0.0.extract.trunc1927, 0
  br i1 %19, label %20, label %28

20:                                               ; preds = %18
  %21 = load i16, ptr %7, align 8, !tbaa !3
  %22 = icmp slt i16 %21, 0
  %23 = ashr i16 %21, 5
  %24 = sext i16 %23 to i32
  %25 = load i32, ptr %12, align 4
  %26 = select i1 %22, i32 %25, i32 %24
  %27 = icmp sgt i32 %26, 0
  br i1 %27, label %_ZN6icu_776number4impl10AffixUtils7hasNextERKNS1_8AffixTagERKNS_13UnicodeStringE.exit.thread, label %_ZN6icu_776number4impl10AffixUtils7hasNextERKNS1_8AffixTagERKNS_13UnicodeStringE.exit.thread23

28:                                               ; preds = %18
  %.sroa.8.8.extract.trunc = trunc i64 %.sroa.8.025 to i32
  switch i32 %.sroa.8.8.extract.trunc, label %_ZN6icu_776number4impl10AffixUtils7hasNextERKNS1_8AffixTagERKNS_13UnicodeStringE.exit.thread [
    i32 2, label %29
    i32 0, label %_ZN6icu_776number4impl10AffixUtils7hasNextERKNS1_8AffixTagERKNS_13UnicodeStringE.exit
  ]

29:                                               ; preds = %28
  %30 = load i16, ptr %7, align 8, !tbaa !3
  %31 = icmp slt i16 %30, 0
  %32 = ashr i16 %30, 5
  %33 = sext i16 %32 to i32
  %34 = load i32, ptr %12, align 4
  %35 = select i1 %31, i32 %34, i32 %33
  %36 = add nsw i32 %35, -1
  %37 = icmp eq i32 %36, %.sroa.0.0.extract.trunc1927
  %38 = icmp ugt i32 %35, %.sroa.0.0.extract.trunc1927
  %or.cond.i = and i1 %38, %37
  br i1 %or.cond.i, label %_ZNK6icu_7713UnicodeString6charAtEi.exit.i, label %_ZN6icu_776number4impl10AffixUtils7hasNextERKNS1_8AffixTagERKNS_13UnicodeStringE.exit.thread

_ZNK6icu_7713UnicodeString6charAtEi.exit.i:       ; preds = %29
  %39 = and i16 %30, 2
  %.not.i.i.i.i = icmp eq i16 %39, 0
  %40 = load ptr, ptr %17, align 8
  %41 = select i1 %.not.i.i.i.i, ptr %40, ptr %16
  %42 = and i64 %.sroa.0.026, 2147483647
  %43 = getelementptr inbounds nuw i16, ptr %41, i64 %42
  %44 = load i16, ptr %43, align 2, !tbaa !13
  %45 = icmp eq i16 %44, 39
  br i1 %45, label %_ZN6icu_776number4impl10AffixUtils7hasNextERKNS1_8AffixTagERKNS_13UnicodeStringE.exit.thread23, label %_ZN6icu_776number4impl10AffixUtils7hasNextERKNS1_8AffixTagERKNS_13UnicodeStringE.exit.thread

_ZN6icu_776number4impl10AffixUtils7hasNextERKNS1_8AffixTagERKNS_13UnicodeStringE.exit: ; preds = %28
  %46 = load i16, ptr %7, align 8, !tbaa !3
  %47 = icmp slt i16 %46, 0
  %48 = ashr i16 %46, 5
  %49 = sext i16 %48 to i32
  %50 = load i32, ptr %12, align 4
  %51 = select i1 %47, i32 %50, i32 %49
  %52 = icmp sgt i32 %51, %.sroa.0.0.extract.trunc1927
  br i1 %52, label %_ZN6icu_776number4impl10AffixUtils7hasNextERKNS1_8AffixTagERKNS_13UnicodeStringE.exit.thread, label %_ZN6icu_776number4impl10AffixUtils7hasNextERKNS1_8AffixTagERKNS_13UnicodeStringE.exit.thread23

_ZN6icu_776number4impl10AffixUtils7hasNextERKNS1_8AffixTagERKNS_13UnicodeStringE.exit.thread: ; preds = %29, %_ZNK6icu_7713UnicodeString6charAtEi.exit.i, %28, %20, %_ZN6icu_776number4impl10AffixUtils7hasNextERKNS1_8AffixTagERKNS_13UnicodeStringE.exit
  %53 = invoke { i64, i64 } @_ZN6icu_776number4impl10AffixUtils9nextTokenENS1_8AffixTagERKNS_13UnicodeStringER10UErrorCode(i64 %.sroa.0.026, i64 %.sroa.8.025, ptr noundef nonnull align 8 dereferenceable(64) %1, ptr noundef nonnull align 4 dereferenceable(4) %4)
          to label %54 unwind label %61

54:                                               ; preds = %_ZN6icu_776number4impl10AffixUtils7hasNextERKNS1_8AffixTagERKNS_13UnicodeStringE.exit.thread
  %55 = extractvalue { i64, i64 } %53, 0
  %56 = extractvalue { i64, i64 } %53, 1
  %57 = load i32, ptr %4, align 4, !tbaa !8
  %58 = icmp slt i32 %57, 1
  br i1 %58, label %63, label %_ZN6icu_776number4impl10AffixUtils7hasNextERKNS1_8AffixTagERKNS_13UnicodeStringE.exit.thread23

59:                                               ; preds = %65
  %60 = landingpad { ptr, i32 }
          cleanup
  br label %69

61:                                               ; preds = %_ZN6icu_776number4impl10AffixUtils7hasNextERKNS1_8AffixTagERKNS_13UnicodeStringE.exit.thread
  %62 = landingpad { ptr, i32 }
          cleanup
  br label %69

63:                                               ; preds = %54
  %.sroa.8.12.extract.shift = lshr i64 %56, 32
  %.sroa.8.12.extract.trunc = trunc nuw i64 %.sroa.8.12.extract.shift to i32
  %64 = icmp eq i32 %2, %.sroa.8.12.extract.trunc
  %.sroa.0.0.extract.trunc = trunc i64 %55 to i32
  br i1 %64, label %65, label %._crit_edge

65:                                               ; preds = %63
  %66 = add nsw i32 %.sroa.0.0.extract.trunc, -1
  call void @llvm.lifetime.start.p0(i64 2, ptr nonnull %6)
  store i16 %3, ptr %6, align 2, !tbaa !13
  %67 = invoke noundef nonnull align 8 dereferenceable(64) ptr @_ZN6icu_7713UnicodeString9doReplaceEiiPKDsii(ptr noundef nonnull align 8 dereferenceable(64) %0, i32 noundef %66, i32 noundef 1, ptr noundef nonnull %6, i32 noundef 0, i32 noundef 1)
          to label %_ZN6icu_7713UnicodeString7replaceEiiDs.exit unwind label %59

_ZN6icu_7713UnicodeString7replaceEiiDs.exit:      ; preds = %65
  call void @llvm.lifetime.end.p0(i64 2, ptr nonnull %6)
  br label %._crit_edge

._crit_edge:                                      ; preds = %63, %_ZN6icu_7713UnicodeString7replaceEiiDs.exit
  %68 = icmp slt i32 %.sroa.0.0.extract.trunc, 0
  br i1 %68, label %_ZN6icu_776number4impl10AffixUtils7hasNextERKNS1_8AffixTagERKNS_13UnicodeStringE.exit.thread23, label %18, !llvm.loop !27

_ZN6icu_776number4impl10AffixUtils7hasNextERKNS1_8AffixTagERKNS_13UnicodeStringE.exit.thread23: ; preds = %_ZNK6icu_7713UnicodeString6charAtEi.exit.i, %._crit_edge, %54, %_ZN6icu_776number4impl10AffixUtils7hasNextERKNS1_8AffixTagERKNS_13UnicodeStringE.exit, %20, %5
  ret void

69:                                               ; preds = %59, %61
  %.pn.pn = phi { ptr, i32 } [ %60, %59 ], [ %62, %61 ]
  call void @_ZN6icu_7713UnicodeStringD1Ev(ptr noundef nonnull align 8 dereferenceable(64) %0) #11
  resume { ptr, i32 } %.pn.pn
}